target datalayout = "e-m:e-p270:32:32-p271:32:32-p272:64:64-i64:64-i128:128-f80:128-n8:16:32:64-S128"
target triple = "x86_64-pc-linux-gnu"

%struct.HWContextType = type { i32, ptr, ptr, i64, i64, i64, ptr, ptr, ptr, ptr, ptr, ptr, ptr, ptr, ptr, ptr, ptr, ptr, ptr, ptr, ptr }
%struct.FFHWDeviceContext = type { %struct.AVHWDeviceContext, ptr, ptr }
%struct.AVHWDeviceContext = type { ptr, i32, ptr, ptr, ptr }
%struct.AVBufferRef = type { ptr, ptr, i64 }

; Function Attrs: nounwind uwtable
define i32 @av_hwdevice_ctx_init(ptr noundef %0) #0 {
  %2 = alloca ptr, align 8
  %3 = alloca ptr, align 8
  %4 = alloca ptr, align 8
  %5 = alloca i32, align 4
  store ptr %0, ptr %2, align 8, !tbaa !28
  call void @llvm.lifetime.start.p0(i64 8, ptr %3) #5
  %6 = load ptr, ptr %2, align 8, !tbaa !28
  %7 = getelementptr inbounds nuw %struct.AVBufferRef, ptr %6, i32 0, i32 1
  %8 = load ptr, ptr %7, align 8, !tbaa !37
  store ptr %8, ptr %3, align 8, !tbaa !20
  call void @llvm.lifetime.start.p0(i64 8, ptr %4) #5
  %9 = load ptr, ptr %3, align 8, !tbaa !20
  %10 = getelementptr inbounds nuw %struct.FFHWDeviceContext, ptr %9, i32 0, i32 0
  store ptr %10, ptr %4, align 8, !tbaa !22
  call void @llvm.lifetime.start.p0(i64 4, ptr %5) #5
  store i32 0, ptr %5, align 4, !tbaa !9
  %11 = load ptr, ptr %3, align 8, !tbaa !20
  %12 = getelementptr inbounds nuw %struct.FFHWDeviceContext, ptr %11, i32 0, i32 1
  %13 = load ptr, ptr %12, align 8, !tbaa !32
  %14 = getelementptr inbounds nuw %struct.HWContextType, ptr %13, i32 0, i32 8
  %15 = load ptr, ptr %14, align 8, !tbaa !40
  %16 = icmp ne ptr %15, null
  br i1 %16, label %17, label %25

17:                                               ; preds = %1
  %18 = load ptr, ptr %3, align 8, !tbaa !20
  %19 = getelementptr inbounds nuw %struct.FFHWDeviceContext, ptr %18, i32 0, i32 1
  %20 = load ptr, ptr %19, align 8, !tbaa !32
  %21 = getelementptr inbounds nuw %struct.HWContextType, ptr %20, i32 0, i32 8
  %22 = load ptr, ptr %21, align 8, !tbaa !40
  %23 = load ptr, ptr %4, align 8, !tbaa !22
  %24 = call i32 %22(ptr noundef %23)
  store i32 %24, ptr %5, align 4, !tbaa !9
  br label %25

25:                                               ; preds = %17, %1
  %26 = load i32, ptr %5, align 4, !tbaa !9
  call void @llvm.lifetime.end.p0(i64 4, ptr %5) #5
  call void @llvm.lifetime.end.p0(i64 8, ptr %4) #5
  call void @llvm.lifetime.end.p0(i64 8, ptr %3) #5
  ret i32 %26
}

; Function Attrs: nounwind uwtable
define i32 @av_hwdevice_ctx_create_derived_opts(ptr noundef %0, i32 noundef %1, ptr noundef %2, ptr noundef %3, i32 noundef %4) #0 {
  %6 = alloca i32, align 4
  %7 = alloca ptr, align 8
  %8 = alloca i32, align 4
  %9 = alloca ptr, align 8
  %10 = alloca ptr, align 8
  %11 = alloca i32, align 4
  %12 = alloca ptr, align 8
  %13 = alloca ptr, align 8
  %14 = alloca ptr, align 8
  %15 = alloca i32, align 4
  %16 = alloca ptr, align 8
  %17 = alloca i32, align 4
  %18 = alloca ptr, align 8
  store ptr %0, ptr %7, align 8, !tbaa !112
  store i32 %1, ptr %8, align 4, !tbaa !9
  store ptr %2, ptr %9, align 8, !tbaa !28
  store ptr %3, ptr %10, align 8, !tbaa !113
  store i32 %4, ptr %11, align 4, !tbaa !9
  call void @llvm.lifetime.start.p0(i64 8, ptr %12) #5
  store ptr null, ptr %12, align 8, !tbaa !28
  call void @llvm.lifetime.start.p0(i64 8, ptr %13) #5
  call void @llvm.lifetime.start.p0(i64 8, ptr %14) #5
  call void @llvm.lifetime.start.p0(i64 4, ptr %15) #5
  store i32 0, ptr %15, align 4, !tbaa !9
  %19 = load ptr, ptr %9, align 8, !tbaa !28
  store ptr %19, ptr %13, align 8, !tbaa !28
  br label %20

20:                                               ; preds = %46, %5
  %21 = load ptr, ptr %13, align 8, !tbaa !28
  %22 = icmp ne ptr %21, null
  br i1 %22, label %23, label %47

23:                                               ; preds = %20
  call void @llvm.lifetime.start.p0(i64 8, ptr %16) #5
  %24 = load ptr, ptr %13, align 8, !tbaa !28
  %25 = getelementptr inbounds nuw %struct.AVBufferRef, ptr %24, i32 0, i32 1
  %26 = load ptr, ptr %25, align 8, !tbaa !37
  store ptr %26, ptr %16, align 8, !tbaa !20
  %27 = load ptr, ptr %16, align 8, !tbaa !20
  %28 = getelementptr inbounds nuw %struct.FFHWDeviceContext, ptr %27, i32 0, i32 0
  %29 = getelementptr inbounds nuw %struct.AVHWDeviceContext, ptr %28, i32 0, i32 1
  %30 = load i32, ptr %29, align 8, !tbaa !115
  %31 = load i32, ptr %8, align 4, !tbaa !9
  %32 = icmp eq i32 %30, %31
  br i1 %32, label %33, label %40

33:                                               ; preds = %23
  %34 = load ptr, ptr %13, align 8, !tbaa !28
  %35 = call ptr @av_buffer_ref(ptr noundef %34)
  store ptr %35, ptr %12, align 8, !tbaa !28
  %36 = load ptr, ptr %12, align 8, !tbaa !28
  %37 = icmp ne ptr %36, null
  br i1 %37, label %39, label %38

38:                                               ; preds = %33
  store i32 -12, ptr %15, align 4, !tbaa !9
  store i32 4, ptr %17, align 4
  br label %44

39:                                               ; preds = %33
  store i32 5, ptr %17, align 4
  br label %44

40:                                               ; preds = %23
  %41 = load ptr, ptr %16, align 8, !tbaa !20
  %42 = getelementptr inbounds nuw %struct.FFHWDeviceContext, ptr %41, i32 0, i32 2
  %43 = load ptr, ptr %42, align 8, !tbaa !116
  store ptr %43, ptr %13, align 8, !tbaa !28
  store i32 0, ptr %17, align 4
  br label %44

44:                                               ; preds = %39, %38, %40
  call void @llvm.lifetime.end.p0(i64 8, ptr %16) #5
  %45 = load i32, ptr %17, align 4
  switch i32 %45, label %122 [
    i32 0, label %46
    i32 5, label %116
    i32 4, label %119
  ]

46:                                               ; preds = %44
  br label %20, !llvm.loop !117

47:                                               ; preds = %20
  %48 = load i32, ptr %8, align 4, !tbaa !9
  %49 = call ptr @av_hwdevice_ctx_alloc(i32 noundef %48)
  store ptr %49, ptr %12, align 8, !tbaa !28
  %50 = load ptr, ptr %12, align 8, !tbaa !28
  %51 = icmp ne ptr %50, null
  br i1 %51, label %53, label %52

52:                                               ; preds = %47
  store i32 -12, ptr %15, align 4, !tbaa !9
  br label %119

53:                                               ; preds = %47
  %54 = load ptr, ptr %12, align 8, !tbaa !28
  %55 = getelementptr inbounds nuw %struct.AVBufferRef, ptr %54, i32 0, i32 1
  %56 = load ptr, ptr %55, align 8, !tbaa !37
  store ptr %56, ptr %14, align 8, !tbaa !20
  %57 = load ptr, ptr %9, align 8, !tbaa !28
  store ptr %57, ptr %13, align 8, !tbaa !28
  br label %58

58:                                               ; preds = %114, %53
  %59 = load ptr, ptr %13, align 8, !tbaa !28
  %60 = icmp ne ptr %59, null
  br i1 %60, label %61, label %115

61:                                               ; preds = %58
  call void @llvm.lifetime.start.p0(i64 8, ptr %18) #5
  %62 = load ptr, ptr %13, align 8, !tbaa !28
  %63 = getelementptr inbounds nuw %struct.AVBufferRef, ptr %62, i32 0, i32 1
  %64 = load ptr, ptr %63, align 8, !tbaa !37
  store ptr %64, ptr %18, align 8, !tbaa !20
  %65 = load ptr, ptr %14, align 8, !tbaa !20
  %66 = getelementptr inbounds nuw %struct.FFHWDeviceContext, ptr %65, i32 0, i32 1
  %67 = load ptr, ptr %66, align 8, !tbaa !32
  %68 = getelementptr inbounds nuw %struct.HWContextType, ptr %67, i32 0, i32 7
  %69 = load ptr, ptr %68, align 8, !tbaa !118
  %70 = icmp ne ptr %69, null
  br i1 %70, label %71, label %108

71:                                               ; preds = %61
  %72 = load ptr, ptr %14, align 8, !tbaa !20
  %73 = getelementptr inbounds nuw %struct.FFHWDeviceContext, ptr %72, i32 0, i32 1
  %74 = load ptr, ptr %73, align 8, !tbaa !32
  %75 = getelementptr inbounds nuw %struct.HWContextType, ptr %74, i32 0, i32 7
  %76 = load ptr, ptr %75, align 8, !tbaa !118
  %77 = load ptr, ptr %14, align 8, !tbaa !20
  %78 = getelementptr inbounds nuw %struct.FFHWDeviceContext, ptr %77, i32 0, i32 0
  %79 = load ptr, ptr %18, align 8, !tbaa !20
  %80 = getelementptr inbounds nuw %struct.FFHWDeviceContext, ptr %79, i32 0, i32 0
  %81 = load ptr, ptr %10, align 8, !tbaa !113
  %82 = load i32, ptr %11, align 4, !tbaa !9
  %83 = call i32 %76(ptr noundef %78, ptr noundef %80, ptr noundef %81, i32 noundef %82)
  store i32 %83, ptr %15, align 4, !tbaa !9
  %84 = load i32, ptr %15, align 4, !tbaa !9
  %85 = icmp eq i32 %84, 0
  br i1 %85, label %86, label %103

86:                                               ; preds = %71
  %87 = load ptr, ptr %9, align 8, !tbaa !28
  %88 = call ptr @av_buffer_ref(ptr noundef %87)
  %89 = load ptr, ptr %14, align 8, !tbaa !20
  %90 = getelementptr inbounds nuw %struct.FFHWDeviceContext, ptr %89, i32 0, i32 2
  store ptr %88, ptr %90, align 8, !tbaa !116
  %91 = load ptr, ptr %14, align 8, !tbaa !20
  %92 = getelementptr inbounds nuw %struct.FFHWDeviceContext, ptr %91, i32 0, i32 2
  %93 = load ptr, ptr %92, align 8, !tbaa !116
  %94 = icmp ne ptr %93, null
  br i1 %94, label %96, label %95

95:                                               ; preds = %86
  store i32 -12, ptr %15, align 4, !tbaa !9
  store i32 4, ptr %17, align 4
  br label %112

96:                                               ; preds = %86
  %97 = load ptr, ptr %12, align 8, !tbaa !28
  %98 = call i32 @av_hwdevice_ctx_init(ptr noundef %97)
  store i32 %98, ptr %15, align 4, !tbaa !9
  %99 = load i32, ptr %15, align 4, !tbaa !9
  %100 = icmp slt i32 %99, 0
  br i1 %100, label %101, label %102

101:                                              ; preds = %96
  store i32 4, ptr %17, align 4
  br label %112

102:                                              ; preds = %96
  store i32 5, ptr %17, align 4
  br label %112

103:                                              ; preds = %71
  %104 = load i32, ptr %15, align 4, !tbaa !9
  %105 = icmp ne i32 %104, -38
  br i1 %105, label %106, label %107

106:                                              ; preds = %103
  store i32 4, ptr %17, align 4
  br label %112

107:                                              ; preds = %103
  br label %108

108:                                              ; preds = %107, %61
  %109 = load ptr, ptr %18, align 8, !tbaa !20
  %110 = getelementptr inbounds nuw %struct.FFHWDeviceContext, ptr %109, i32 0, i32 2
  %111 = load ptr, ptr %110, align 8, !tbaa !116
  store ptr %111, ptr %13, align 8, !tbaa !28
  store i32 0, ptr %17, align 4
  br label %112

112:                                              ; preds = %106, %102, %101, %95, %108
  call void @llvm.lifetime.end.p0(i64 8, ptr %18) #5
  %113 = load i32, ptr %17, align 4
  switch i32 %113, label %122 [
    i32 0, label %114
    i32 5, label %116
    i32 4, label %119
  ]

114:                                              ; preds = %112
  br label %58, !llvm.loop !119

115:                                              ; preds = %58
  store i32 -38, ptr %15, align 4, !tbaa !9
  br label %119

116:                                              ; preds = %112, %44
  %117 = load ptr, ptr %12, align 8, !tbaa !28
  %118 = load ptr, ptr %7, align 8, !tbaa !112
  store ptr %117, ptr %118, align 8, !tbaa !28
  store i32 0, ptr %6, align 4
  store i32 1, ptr %17, align 4
  br label %122

119:                                              ; preds = %112, %44, %115, %52
  call void @av_buffer_unref(ptr noundef %12)
  %120 = load ptr, ptr %7, align 8, !tbaa !112
  store ptr null, ptr %120, align 8, !tbaa !28
  %121 = load i32, ptr %15, align 4, !tbaa !9
  store i32 %121, ptr %6, align 4
  store i32 1, ptr %17, align 4
  br label %122

122:                                              ; preds = %119, %116, %112, %44
  call void @llvm.lifetime.end.p0(i64 4, ptr %15) #5
  call void @llvm.lifetime.end.p0(i64 8, ptr %14) #5
  call void @llvm.lifetime.end.p0(i64 8, ptr %13) #5
  call void @llvm.lifetime.end.p0(i64 8, ptr %12) #5
  %123 = load i32, ptr %6, align 4
  ret i32 %123
}