; Function Attrs: nounwind uwtable
define noundef i32 @av_hwdevice_ctx_create_derived_opts(ptr noundef writeonly captures(none) %0, i32 noundef %1, ptr noundef %2, ptr noundef %3, i32 noundef %4) local_unnamed_addr #5 {
  %6 = alloca ptr, align 8
  call void @llvm.lifetime.start.p0(i64 8, ptr nonnull %6) #11
  %.not70 = icmp eq ptr %2, null
  br i1 %.not70, label %._crit_edge, label %.lr.ph

.lr.ph:                                           ; preds = %5, %14
  %.03071 = phi ptr [ %16, %14 ], [ %2, %5 ]
  %7 = getelementptr inbounds nuw i8, ptr %.03071, i64 8
  %8 = load ptr, ptr %7, align 8, !tbaa !32
  %9 = getelementptr inbounds nuw i8, ptr %8, i64 8
  %10 = load i32, ptr %9, align 8, !tbaa !104
  %11 = icmp eq i32 %10, %1
  br i1 %11, label %12, label %14

12:                                               ; preds = %.lr.ph
  %13 = tail call ptr @av_buffer_ref(ptr noundef nonnull %.03071) #11
  store ptr %13, ptr %6, align 8, !tbaa !36
  %.not46 = icmp eq ptr %13, null
  br i1 %.not46, label %.thread52, label %.thread

14:                                               ; preds = %.lr.ph
  %15 = getelementptr inbounds nuw i8, ptr %8, i64 48
  %16 = load ptr, ptr %15, align 8, !tbaa !105
  %.not = icmp eq ptr %16, null
  br i1 %.not, label %._crit_edge, label %.lr.ph

._crit_edge:                                      ; preds = %14, %5
  %17 = tail call ptr @av_hwdevice_ctx_alloc(i32 noundef %1)
  store ptr %17, ptr %6, align 8, !tbaa !36
  %.not41 = icmp eq ptr %17, null
  br i1 %.not41, label %.thread52, label %18

18:                                               ; preds = %._crit_edge
  %19 = getelementptr inbounds nuw i8, ptr %17, i64 8
  %20 = load ptr, ptr %19, align 8, !tbaa !32
  br i1 %.not70, label %.thread52, label %.lr.ph75

.lr.ph75:                                         ; preds = %18
  %21 = getelementptr inbounds nuw i8, ptr %20, i64 40
  %22 = load ptr, ptr %21, align 8, !tbaa !27
  %23 = getelementptr inbounds nuw i8, ptr %22, i64 56
  %24 = load ptr, ptr %23, align 8, !tbaa !106
  %25 = icmp eq ptr %24, null
  br i1 %25, label %.lr.ph75.split.us, label %.lr.ph75.split

.lr.ph75.split.us:                                ; preds = %.lr.ph75, %.lr.ph75.split.us
  %.273.us = phi ptr [ %29, %.lr.ph75.split.us ], [ %2, %.lr.ph75 ]
  %26 = getelementptr inbounds nuw i8, ptr %.273.us, i64 8
  %27 = load ptr, ptr %26, align 8, !tbaa !32
  %28 = getelementptr inbounds nuw i8, ptr %27, i64 48
  %29 = load ptr, ptr %28, align 8, !tbaa !105
  %.not42.us = icmp eq ptr %29, null
  br i1 %.not42.us, label %.thread52, label %.lr.ph75.split.us

.lr.ph75.split:                                   ; preds = %.lr.ph75, %48
  %.273 = phi ptr [ %50, %48 ], [ %2, %.lr.ph75 ]
  %30 = getelementptr inbounds nuw i8, ptr %.273, i64 8
  %31 = load ptr, ptr %30, align 8, !tbaa !32
  %32 = load ptr, ptr %21, align 8, !tbaa !27
  %33 = getelementptr inbounds nuw i8, ptr %32, i64 56
  %34 = load ptr, ptr %33, align 8, !tbaa !106
  %.not43 = icmp eq ptr %34, null
  br i1 %.not43, label %48, label %35

35:                                               ; preds = %.lr.ph75.split
  %36 = tail call i32 %34(ptr noundef nonnull %20, ptr noundef %31, ptr noundef %3, i32 noundef %4) #11
  switch i32 %36, label %.thread52 [
    i32 0, label %37
    i32 -38, label %48
  ]

37:                                               ; preds = %35
  %38 = tail call ptr @av_buffer_ref(ptr noundef nonnull %2) #11
  %39 = getelementptr inbounds nuw i8, ptr %20, i64 48
  store ptr %38, ptr %39, align 8, !tbaa !105
  %.not45 = icmp eq ptr %38, null
  br i1 %.not45, label %.thread52, label %40

40:                                               ; preds = %37
  %41 = load ptr, ptr %19, align 8, !tbaa !32
  %42 = getelementptr inbounds nuw i8, ptr %41, i64 40
  %43 = load ptr, ptr %42, align 8, !tbaa !27
  %44 = getelementptr inbounds nuw i8, ptr %43, i64 64
  %45 = load ptr, ptr %44, align 8, !tbaa !35
  %.not.i = icmp eq ptr %45, null
  br i1 %.not.i, label %.thread, label %av_hwdevice_ctx_init.exit

av_hwdevice_ctx_init.exit:                        ; preds = %40
  %46 = tail call i32 %45(ptr noundef nonnull %41) #11
  %.fr = freeze i32 %46
  %47 = icmp slt i32 %.fr, 0
  br i1 %47, label %.thread52, label %.thread

48:                                               ; preds = %.lr.ph75.split, %35
  %49 = getelementptr inbounds nuw i8, ptr %31, i64 48
  %50 = load ptr, ptr %49, align 8, !tbaa !105
  %.not42 = icmp eq ptr %50, null
  br i1 %.not42, label %.thread52, label %.lr.ph75.split, !llvm.loop !107

.thread52:                                        ; preds = %48, %35, %.lr.ph75.split.us, %18, %av_hwdevice_ctx_init.exit, %37, %12, %._crit_edge
  %.234 = phi i32 [ -12, %._crit_edge ], [ -12, %12 ], [ -12, %37 ], [ %.fr, %av_hwdevice_ctx_init.exit ], [ -38, %18 ], [ -38, %.lr.ph75.split.us ], [ -38, %48 ], [ %36, %35 ]
  call void @av_buffer_unref(ptr noundef nonnull %6) #11
  br label %.thread

.thread:                                          ; preds = %12, %av_hwdevice_ctx_init.exit, %40, %.thread52
  %storemerge = phi ptr [ null, %.thread52 ], [ %17, %40 ], [ %17, %av_hwdevice_ctx_init.exit ], [ %13, %12 ]
  %.0 = phi i32 [ %.234, %.thread52 ], [ 0, %40 ], [ 0, %av_hwdevice_ctx_init.exit ], [ 0, %12 ]
  store ptr %storemerge, ptr %0, align 8, !tbaa !36
  call void @llvm.lifetime.end.p0(i64 8, ptr nonnull %6) #11
  ret i32 %.0
}